target datalayout = "e-m:e-p270:32:32-p271:32:32-p272:64:64-i64:64-i128:128-f80:128-n8:16:32:64-S128"
target triple = "x86_64-unknown-linux-gnu"

; Function Attrs: mustprogress nounwind uwtable
define linkonce_odr dso_local noundef signext i8 @_ZNKSt5ctypeIcE7tolowerEc(ptr noundef nonnull align 8 dereferenceable(570) %this, i8 noundef signext %__c) #0 comdat align 2 {
entry:
  %this.addr = alloca ptr, align 8
  %__c.addr = alloca i8, align 1
  store ptr %this, ptr %this.addr, align 8
  store i8 %__c, ptr %__c.addr, align 1
  %this1 = load ptr, ptr %this.addr, align 8
  %0 = load i8, ptr %__c.addr, align 1
  %vtable = load ptr, ptr %this1, align 8
  %vfn = getelementptr inbounds ptr, ptr %vtable, i64 4
  %1 = load ptr, ptr %vfn, align 8
  %call = call noundef signext i8 %1(ptr noundef nonnull align 8 dereferenceable(570) %this1, i8 noundef signext %0)
  ret i8 %call
}

; Function Attrs: mustprogress nounwind uwtable
define linkonce_odr dso_local noundef signext i8 @_ZSt7tolowerIcET_S0_RKSt6locale(i8 noundef signext %__c, ptr noundef nonnull align 8 dereferenceable(8) %__loc) #0 comdat {
entry:
  %__c.addr = alloca i8, align 1
  %__loc.addr = alloca ptr, align 8
  store i8 %__c, ptr %__c.addr, align 1
  store ptr %__loc, ptr %__loc.addr, align 8
  %0 = load ptr, ptr %__loc.addr, align 8
  %call = call noundef nonnull align 8 dereferenceable(570) ptr @_ZSt9use_facetISt5ctypeIcEERKT_RKSt6locale(ptr noundef nonnull align 8 dereferenceable(8) %0)
  %1 = load i8, ptr %__c.addr, align 1
  %call1 = call noundef signext i8 @_ZNKSt5ctypeIcE7tolowerEc(ptr noundef nonnull align 8 dereferenceable(570) %call, i8 noundef signext %1)
  ret i8 %call1
}

; Function Attrs: mustprogress nounwind uwtable
define linkonce_odr dso_local noundef signext i8 @_ZN4node7ToLowerEc(i8 noundef signext %c) #0 comdat {
entry:
  %c.addr = alloca i8, align 1
  store i8 %c, ptr %c.addr, align 1
  %0 = load i8, ptr %c.addr, align 1
  %call = call noundef nonnull align 8 dereferenceable(8) ptr @_ZNSt6locale7classicEv()
  %call1 = call noundef signext i8 @_ZSt7tolowerIcET_S0_RKSt6locale(i8 noundef signext %0, ptr noundef nonnull align 8 dereferenceable(8) %call)
  ret i8 %call1
}

; Function Attrs: mustprogress nounwind uwtable
define linkonce_odr dso_local noundef zeroext i1 @_ZN4node18StringEqualNoCaseNEPKcS1_m(ptr noundef %a, ptr noundef %b, i64 noundef %length) #0 comdat {
entry:
  %retval = alloca i1, align 1
  %a.addr = alloca ptr, align 8
  %b.addr = alloca ptr, align 8
  %length.addr = alloca i64, align 8
  %i = alloca i64, align 8
  store ptr %a, ptr %a.addr, align 8
  store ptr %b, ptr %b.addr, align 8
  store i64 %length, ptr %length.addr, align 8
  store i64 0, ptr %i, align 8
  br label %for.cond

for.cond:                                         ; preds = %for.inc, %entry
  %0 = load i64, ptr %i, align 8
  %1 = load i64, ptr %length.addr, align 8
  %cmp = icmp ult i64 %0, %1
  br i1 %cmp, label %for.body, label %for.end

for.body:                                         ; preds = %for.cond
  %2 = load ptr, ptr %a.addr, align 8
  %3 = load i64, ptr %i, align 8
  %arrayidx = getelementptr inbounds i8, ptr %2, i64 %3
  %4 = load i8, ptr %arrayidx, align 1
  %call = call noundef signext i8 @_ZN4node7ToLowerEc(i8 noundef signext %4)
  %conv = sext i8 %call to i32
  %5 = load ptr, ptr %b.addr, align 8
  %6 = load i64, ptr %i, align 8
  %arrayidx1 = getelementptr inbounds i8, ptr %5, i64 %6
  %7 = load i8, ptr %arrayidx1, align 1
  %call2 = call noundef signext i8 @_ZN4node7ToLowerEc(i8 noundef signext %7)
  %conv3 = sext i8 %call2 to i32
  %cmp4 = icmp ne i32 %conv, %conv3
  br i1 %cmp4, label %if.then, label %if.end

if.then:                                          ; preds = %for.body
  store i1 false, ptr %retval, align 1
  br label %return

if.end:                                           ; preds = %for.body
  %8 = load ptr, ptr %a.addr, align 8
  %9 = load i64, ptr %i, align 8
  %arrayidx5 = getelementptr inbounds i8, ptr %8, i64 %9
  %10 = load i8, ptr %arrayidx5, align 1
  %conv6 = sext i8 %10 to i32
  %cmp7 = icmp eq i32 %conv6, 0
  br i1 %cmp7, label %if.then8, label %if.end9

if.then8:                                         ; preds = %if.end
  store i1 true, ptr %retval, align 1
  br label %return

if.end9:                                          ; preds = %if.end
  br label %for.inc

for.inc:                                          ; preds = %if.end9
  %11 = load i64, ptr %i, align 8
  %inc = add i64 %11, 1
  store i64 %inc, ptr %i, align 8
  br label %for.cond, !llvm.loop !8

for.end:                                          ; preds = %for.cond
  store i1 true, ptr %retval, align 1
  br label %return

return:                                           ; preds = %for.end, %if.then8, %if.then
  %12 = load i1, ptr %retval, align 1
  ret i1 %12
}

; Function Attrs: mustprogress nounwind uwtable
define internal noundef ptr @_ZN4node9inspector12_GLOBAL__N_116MatchPathSegmentEPKcS3_(ptr noundef %path, ptr noundef %expected) #0 {
entry:
  %retval = alloca ptr, align 8
  %path.addr = alloca ptr, align 8
  %expected.addr = alloca ptr, align 8
  %len = alloca i64, align 8
  store ptr %path, ptr %path.addr, align 8
  store ptr %expected, ptr %expected.addr, align 8
  %0 = load ptr, ptr %expected.addr, align 8
  %call = call i64 @strlen(ptr noundef %0) #13
  store i64 %call, ptr %len, align 8
  %1 = load ptr, ptr %path.addr, align 8
  %2 = load ptr, ptr %expected.addr, align 8
  %3 = load i64, ptr %len, align 8
  %call1 = call noundef zeroext i1 @_ZN4node18StringEqualNoCaseNEPKcS1_m(ptr noundef %1, ptr noundef %2, i64 noundef %3)
  br i1 %call1, label %if.then, label %if.end10

if.then:                                          ; preds = %entry
  %4 = load ptr, ptr %path.addr, align 8
  %5 = load i64, ptr %len, align 8
  %arrayidx = getelementptr inbounds i8, ptr %4, i64 %5
  %6 = load i8, ptr %arrayidx, align 1
  %conv = sext i8 %6 to i32
  %cmp = icmp eq i32 %conv, 47
  br i1 %cmp, label %if.then2, label %if.end

if.then2:                                         ; preds = %if.then
  %7 = load ptr, ptr %path.addr, align 8
  %8 = load i64, ptr %len, align 8
  %add.ptr = getelementptr inbounds i8, ptr %7, i64 %8
  %add.ptr3 = getelementptr inbounds i8, ptr %add.ptr, i64 1
  store ptr %add.ptr3, ptr %retval, align 8
  br label %return

if.end:                                           ; preds = %if.then
  %9 = load ptr, ptr %path.addr, align 8
  %10 = load i64, ptr %len, align 8
  %arrayidx4 = getelementptr inbounds i8, ptr %9, i64 %10
  %11 = load i8, ptr %arrayidx4, align 1
  %conv5 = sext i8 %11 to i32
  %cmp6 = icmp eq i32 %conv5, 0
  br i1 %cmp6, label %if.then7, label %if.end9

if.then7:                                         ; preds = %if.end
  %12 = load ptr, ptr %path.addr, align 8
  %13 = load i64, ptr %len, align 8
  %add.ptr8 = getelementptr inbounds i8, ptr %12, i64 %13
  store ptr %add.ptr8, ptr %retval, align 8
  br label %return

if.end9:                                          ; preds = %if.end
  br label %if.end10

if.end10:                                         ; preds = %if.end9, %entry
  store ptr null, ptr %retval, align 8
  br label %return

return:                                           ; preds = %if.end10, %if.then7, %if.then2
  %14 = load ptr, ptr %retval, align 8
  ret ptr %14
}