; Function Attrs: mustprogress nounwind uwtable
define internal fastcc noundef ptr @_ZN4node9inspector12_GLOBAL__N_116MatchPathSegmentEPKcS3_(ptr noundef readonly %path, ptr nocapture noundef readonly %expected) unnamed_addr #0 {
entry:
  %call = tail call i64 @strlen(ptr noundef nonnull dereferenceable(1) %expected) #22
  %cmp11.not.i = icmp eq i64 %call, 0
  br i1 %cmp11.not.i, label %if.then, label %for.body.i

for.body.i:                                       ; preds = %entry, %if.end.i
  %i.012.i = phi i64 [ %inc.i, %if.end.i ], [ 0, %entry ]
  %arrayidx.i = getelementptr inbounds i8, ptr %path, i64 %i.012.i
  %0 = load i8, ptr %arrayidx.i, align 1
  %call.i.i = tail call noundef nonnull align 8 dereferenceable(8) ptr @_ZNSt6locale7classicEv() #19
  %call.i.i.i = tail call noundef nonnull align 8 dereferenceable(570) ptr @_ZSt9use_facetISt5ctypeIcEERKT_RKSt6locale(ptr noundef nonnull align 8 dereferenceable(8) %call.i.i) #19
  %vtable.i.i.i.i = load ptr, ptr %call.i.i.i, align 8
  %vfn.i.i.i.i = getelementptr inbounds i8, ptr %vtable.i.i.i.i, i64 32
  %1 = load ptr, ptr %vfn.i.i.i.i, align 8
  %call.i.i.i.i = tail call noundef signext i8 %1(ptr noundef nonnull align 8 dereferenceable(570) %call.i.i.i, i8 noundef signext %0) #19
  %arrayidx1.i = getelementptr inbounds i8, ptr %expected, i64 %i.012.i
  %2 = load i8, ptr %arrayidx1.i, align 1
  %call.i6.i = tail call noundef nonnull align 8 dereferenceable(8) ptr @_ZNSt6locale7classicEv() #19
  %call.i.i7.i = tail call noundef nonnull align 8 dereferenceable(570) ptr @_ZSt9use_facetISt5ctypeIcEERKT_RKSt6locale(ptr noundef nonnull align 8 dereferenceable(8) %call.i6.i) #19
  %vtable.i.i.i8.i = load ptr, ptr %call.i.i7.i, align 8
  %vfn.i.i.i9.i = getelementptr inbounds i8, ptr %vtable.i.i.i8.i, i64 32
  %3 = load ptr, ptr %vfn.i.i.i9.i, align 8
  %call.i.i.i10.i = tail call noundef signext i8 %3(ptr noundef nonnull align 8 dereferenceable(570) %call.i.i7.i, i8 noundef signext %2) #19
  %cmp4.not.i = icmp eq i8 %call.i.i.i.i, %call.i.i.i10.i
  br i1 %cmp4.not.i, label %if.end.i, label %if.end10

if.end.i:                                         ; preds = %for.body.i
  %4 = load i8, ptr %arrayidx.i, align 1
  %cmp7.i = icmp eq i8 %4, 0
  %inc.i = add nuw i64 %i.012.i, 1
  %exitcond.not.i = icmp eq i64 %inc.i, %call
  %or.cond.i = select i1 %cmp7.i, i1 true, i1 %exitcond.not.i
  br i1 %or.cond.i, label %if.then, label %for.body.i, !llvm.loop !26

if.then:                                          ; preds = %if.end.i, %entry
  %arrayidx = getelementptr inbounds i8, ptr %path, i64 %call
  %5 = load i8, ptr %arrayidx, align 1
  switch i8 %5, label %if.end10 [
    i8 47, label %if.then2
    i8 0, label %return
  ]

if.then2:                                         ; preds = %if.then
  %add.ptr3 = getelementptr inbounds i8, ptr %arrayidx, i64 1
  br label %return

if.end10:                                         ; preds = %for.body.i, %if.then
  br label %return

return:                                           ; preds = %if.then, %if.end10, %if.then2
  %retval.0 = phi ptr [ %add.ptr3, %if.then2 ], [ null, %if.end10 ], [ %arrayidx, %if.then ]
  ret ptr %retval.0
}